; Function Attrs: mustprogress uwtable
define internal void @"_ZN4LuauL8fnVisitVIRZNS_8toStringB5cxx11ERKNS_8TypePath4PathEbE3$_0KNS1_9ReductionEEEvRT_PNSt11conditionalIXsr3stdE10is_const_vIT0_EEKvvE4typeE"(ptr noundef nonnull readonly align 8 captures(none) dereferenceable(24) %0, ptr readnone captures(none) %1) #8 {
  %3 = load ptr, ptr %0, align 8, !tbaa !83
  %4 = getelementptr inbounds nuw i8, ptr %3, i64 16
  %5 = tail call noundef nonnull align 8 dereferenceable(8) ptr @_ZSt16__ostream_insertIcSt11char_traitsIcEERSt13basic_ostreamIT_T0_ES6_PKS3_l(ptr noundef nonnull align 8 dereferenceable(8) %4, ptr noundef nonnull @.str.72, i64 noundef 3)
  %6 = getelementptr inbounds nuw i8, ptr %0, i64 8
  %7 = load ptr, ptr %6, align 8, !tbaa !95
  store i8 0, ptr %7, align 1, !tbaa !48
  ret void
}